target datalayout = "e-m:e-p270:32:32-p271:32:32-p272:64:64-i64:64-i128:128-f80:128-n8:16:32:64-S128"
target triple = "x86_64-pc-linux-gnu"

%struct.stat = type { i64, i64, i64, i32, i32, i32, i32, i64, i64, i64, i64, %struct.timespec, %struct.timespec, %struct.timespec, [3 x i64] }
%struct.timespec = type { i64, i64 }

@g_displayLevel = internal global i32 0, align 4
@stderr = external global ptr, align 8
@.str.50 = private unnamed_addr constant [24 x i8] c"Using stdin for input \0A\00", align 1
@stdin = external global ptr, align 8
@.str.51 = private unnamed_addr constant [36 x i8] c"lz4: %s is a directory -- ignored \0A\00", align 1
@.str.52 = private unnamed_addr constant [3 x i8] c"rb\00", align 1
@.str.53 = private unnamed_addr constant [9 x i8] c"%s: %s \0A\00", align 1
@.str.73 = private unnamed_addr constant [6 x i8] c"stdin\00", align 1

; Function Attrs: nounwind uwtable
define internal i32 @UTIL_sameString(ptr noundef %0, ptr noundef %1) #0 {
  %3 = alloca i32, align 4
  %4 = alloca ptr, align 8
  %5 = alloca ptr, align 8
  store ptr %0, ptr %4, align 8, !tbaa !31
  store ptr %1, ptr %5, align 8, !tbaa !31
  %6 = load ptr, ptr %4, align 8, !tbaa !31
  %7 = icmp eq ptr %6, null
  br i1 %7, label %8, label %9

8:                                                ; preds = %2
  store i32 0, ptr %3, align 4
  br label %20

9:                                                ; preds = %2
  %10 = load ptr, ptr %5, align 8, !tbaa !31
  %11 = icmp eq ptr %10, null
  br i1 %11, label %12, label %13

12:                                               ; preds = %9
  store i32 0, ptr %3, align 4
  br label %20

13:                                               ; preds = %9
  %14 = load ptr, ptr %4, align 8, !tbaa !31
  %15 = load ptr, ptr %5, align 8, !tbaa !31
  %16 = call i32 @strcmp(ptr noundef %14, ptr noundef %15) #16
  %17 = icmp ne i32 %16, 0
  %18 = xor i1 %17, true
  %19 = zext i1 %18 to i32
  store i32 %19, ptr %3, align 4
  br label %20

20:                                               ; preds = %13, %12, %8
  %21 = load i32, ptr %3, align 4
  ret i32 %21
}

; Function Attrs: nounwind uwtable
define internal i32 @UTIL_isDirectory(ptr noundef %0) #0 {
  %2 = alloca i32, align 4
  %3 = alloca ptr, align 8
  %4 = alloca %struct.stat, align 8
  %5 = alloca i32, align 4
  %6 = alloca i32, align 4
  store ptr %0, ptr %3, align 8, !tbaa !31
  call void @llvm.lifetime.start.p0(i64 144, ptr %4) #13
  call void @llvm.lifetime.start.p0(i64 4, ptr %5) #13
  %7 = load ptr, ptr %3, align 8, !tbaa !31
  %8 = call i32 @stat(ptr noundef %7, ptr noundef %4) #13
  store i32 %8, ptr %5, align 4, !tbaa !9
  %9 = load i32, ptr %5, align 4, !tbaa !9
  %10 = icmp ne i32 %9, 0
  br i1 %10, label %11, label %12

11:                                               ; preds = %1
  store i32 0, ptr %2, align 4
  store i32 1, ptr %6, align 4
  br label %18

12:                                               ; preds = %1
  %13 = getelementptr inbounds nuw %struct.stat, ptr %4, i32 0, i32 3
  %14 = load i32, ptr %13, align 8, !tbaa !104
  %15 = and i32 %14, 61440
  %16 = icmp eq i32 %15, 16384
  %17 = zext i1 %16 to i32
  store i32 %17, ptr %2, align 4
  store i32 1, ptr %6, align 4
  br label %18

18:                                               ; preds = %12, %11
  call void @llvm.lifetime.end.p0(i64 4, ptr %5) #13
  call void @llvm.lifetime.end.p0(i64 144, ptr %4) #13
  %19 = load i32, ptr %2, align 4
  ret i32 %19
}

; Function Attrs: nounwind uwtable
define internal i32 @LZ4IO_isStdin(ptr noundef %0) #0 {
  %2 = alloca ptr, align 8
  store ptr %0, ptr %2, align 8, !tbaa !31
  %3 = load ptr, ptr %2, align 8, !tbaa !31
  %4 = call i32 @UTIL_sameString(ptr noundef %3, ptr noundef @.str.73)
  ret i32 %4
}

; Function Attrs: nounwind uwtable
define internal ptr @LZ4IO_openSrcFile(ptr noundef %0) #0 {
  %2 = alloca ptr, align 8
  %3 = alloca ptr, align 8
  %4 = alloca ptr, align 8
  %5 = alloca i32, align 4
  store ptr %0, ptr %3, align 8, !tbaa !31
  call void @llvm.lifetime.start.p0(i64 8, ptr %4) #13
  %6 = load ptr, ptr %3, align 8, !tbaa !31
  %7 = call i32 @LZ4IO_isStdin(ptr noundef %6)
  %8 = icmp ne i32 %7, 0
  br i1 %8, label %9, label %24

9:                                                ; preds = %1
  %10 = load i32, ptr @g_displayLevel, align 4, !tbaa !9
  %11 = icmp sge i32 %10, 4
  br i1 %11, label %12, label %21

12:                                               ; preds = %9
  %13 = load ptr, ptr @stderr, align 8, !tbaa !11
  %14 = call i32 (ptr, ptr, ...) @fprintf(ptr noundef %13, ptr noundef @.str.50) #13
  %15 = load i32, ptr @g_displayLevel, align 4, !tbaa !9
  %16 = icmp sge i32 %15, 4
  br i1 %16, label %17, label %20

17:                                               ; preds = %12
  %18 = load ptr, ptr @stderr, align 8, !tbaa !11
  %19 = call i32 @fflush(ptr noundef %18)
  br label %20

20:                                               ; preds = %17, %12
  br label %21

21:                                               ; preds = %20, %9
  %22 = load ptr, ptr @stdin, align 8, !tbaa !11
  store ptr %22, ptr %4, align 8, !tbaa !11
  %23 = load ptr, ptr %4, align 8, !tbaa !11
  store ptr %23, ptr %2, align 8
  store i32 1, ptr %5, align 4
  br label %66

24:                                               ; preds = %1
  %25 = load ptr, ptr %3, align 8, !tbaa !31
  %26 = call i32 @UTIL_isDirectory(ptr noundef %25)
  %27 = icmp ne i32 %26, 0
  br i1 %27, label %28, label %42

28:                                               ; preds = %24
  %29 = load i32, ptr @g_displayLevel, align 4, !tbaa !9
  %30 = icmp sge i32 %29, 1
  br i1 %30, label %31, label %41

31:                                               ; preds = %28
  %32 = load ptr, ptr @stderr, align 8, !tbaa !11
  %33 = load ptr, ptr %3, align 8, !tbaa !31
  %34 = call i32 (ptr, ptr, ...) @fprintf(ptr noundef %32, ptr noundef @.str.51, ptr noundef %33) #13
  %35 = load i32, ptr @g_displayLevel, align 4, !tbaa !9
  %36 = icmp sge i32 %35, 4
  br i1 %36, label %37, label %40

37:                                               ; preds = %31
  %38 = load ptr, ptr @stderr, align 8, !tbaa !11
  %39 = call i32 @fflush(ptr noundef %38)
  br label %40

40:                                               ; preds = %37, %31
  br label %41

41:                                               ; preds = %40, %28
  store ptr null, ptr %2, align 8
  store i32 1, ptr %5, align 4
  br label %66

42:                                               ; preds = %24
  %43 = load ptr, ptr %3, align 8, !tbaa !31
  %44 = call noalias ptr @fopen(ptr noundef %43, ptr noundef @.str.52)
  store ptr %44, ptr %4, align 8, !tbaa !11
  %45 = load ptr, ptr %4, align 8, !tbaa !11
  %46 = icmp eq ptr %45, null
  br i1 %46, label %47, label %64

47:                                               ; preds = %42
  %48 = load i32, ptr @g_displayLevel, align 4, !tbaa !9
  %49 = icmp sge i32 %48, 1
  br i1 %49, label %50, label %63

50:                                               ; preds = %47
  %51 = load ptr, ptr @stderr, align 8, !tbaa !11
  %52 = load ptr, ptr %3, align 8, !tbaa !31
  %53 = call ptr @__errno_location() #17
  %54 = load i32, ptr %53, align 4, !tbaa !9
  %55 = call ptr @strerror(i32 noundef %54) #13
  %56 = call i32 (ptr, ptr, ...) @fprintf(ptr noundef %51, ptr noundef @.str.53, ptr noundef %52, ptr noundef %55) #13
  %57 = load i32, ptr @g_displayLevel, align 4, !tbaa !9
  %58 = icmp sge i32 %57, 4
  br i1 %58, label %59, label %62

59:                                               ; preds = %50
  %60 = load ptr, ptr @stderr, align 8, !tbaa !11
  %61 = call i32 @fflush(ptr noundef %60)
  br label %62

62:                                               ; preds = %59, %50
  br label %63

63:                                               ; preds = %62, %47
  br label %64

64:                                               ; preds = %63, %42
  %65 = load ptr, ptr %4, align 8, !tbaa !11
  store ptr %65, ptr %2, align 8
  store i32 1, ptr %5, align 4
  br label %66

66:                                               ; preds = %64, %41, %21
  call void @llvm.lifetime.end.p0(i64 8, ptr %4) #13
  %67 = load ptr, ptr %2, align 8
  ret ptr %67
}