; Function Attrs: nounwind uwtable
define internal fastcc ptr @LZ4IO_openSrcFile(ptr noundef %0) unnamed_addr #11 {
  %2 = alloca %struct.stat, align 8
  %3 = icmp eq ptr %0, null
  br i1 %3, label %LZ4IO_isStdin.exit.thread, label %LZ4IO_isStdin.exit

LZ4IO_isStdin.exit:                               ; preds = %1
  %4 = tail call i32 @strcmp(ptr noundef nonnull readonly dereferenceable(1) %0, ptr noundef nonnull dereferenceable(6) @.str.73) #30
  %.not.i.i.not = icmp eq i32 %4, 0
  br i1 %.not.i.i.not, label %5, label %LZ4IO_isStdin.exit.thread

5:                                                ; preds = %LZ4IO_isStdin.exit
  %6 = load i32, ptr @g_displayLevel, align 4, !tbaa !4
  %7 = icmp sgt i32 %6, 3
  br i1 %7, label %8, label %16

8:                                                ; preds = %5
  %9 = load ptr, ptr @stderr, align 8, !tbaa !8
  %10 = tail call i64 @fwrite(ptr nonnull @.str.50, i64 23, i64 1, ptr %9) #27
  %11 = load i32, ptr @g_displayLevel, align 4, !tbaa !4
  %12 = icmp sgt i32 %11, 3
  br i1 %12, label %13, label %16

13:                                               ; preds = %8
  %14 = load ptr, ptr @stderr, align 8, !tbaa !8
  %15 = tail call i32 @fflush(ptr noundef %14)
  br label %16

16:                                               ; preds = %8, %13, %5
  %17 = load ptr, ptr @stdin, align 8, !tbaa !8
  br label %50

LZ4IO_isStdin.exit.thread:                        ; preds = %1, %LZ4IO_isStdin.exit
  call void @llvm.lifetime.start.p0(i64 144, ptr nonnull %2) #24
  %18 = call i32 @stat(ptr noundef readonly %0, ptr noundef nonnull %2) #24
  %.not.i = icmp ne i32 %18, 0
  %19 = getelementptr inbounds nuw i8, ptr %2, i64 24
  %20 = load i32, ptr %19, align 8
  %21 = and i32 %20, 61440
  %22 = icmp ne i32 %21, 16384
  %narrow.i.not = select i1 %.not.i, i1 true, i1 %22
  call void @llvm.lifetime.end.p0(i64 144, ptr nonnull %2) #24
  br i1 %narrow.i.not, label %34, label %23

23:                                               ; preds = %LZ4IO_isStdin.exit.thread
  %24 = load i32, ptr @g_displayLevel, align 4, !tbaa !4
  %25 = icmp sgt i32 %24, 0
  br i1 %25, label %26, label %50

26:                                               ; preds = %23
  %27 = load ptr, ptr @stderr, align 8, !tbaa !8
  %28 = tail call i32 (ptr, ptr, ...) @fprintf(ptr noundef %27, ptr noundef nonnull @.str.51, ptr noundef %0) #26
  %29 = load i32, ptr @g_displayLevel, align 4, !tbaa !4
  %30 = icmp sgt i32 %29, 3
  br i1 %30, label %31, label %50

31:                                               ; preds = %26
  %32 = load ptr, ptr @stderr, align 8, !tbaa !8
  %33 = tail call i32 @fflush(ptr noundef %32)
  br label %50

34:                                               ; preds = %LZ4IO_isStdin.exit.thread
  %35 = tail call noalias ptr @fopen(ptr noundef %0, ptr noundef nonnull @.str.52)
  %36 = icmp eq ptr %35, null
  %37 = load i32, ptr @g_displayLevel, align 4
  %38 = icmp sgt i32 %37, 0
  %or.cond = select i1 %36, i1 %38, i1 false
  br i1 %or.cond, label %39, label %50

39:                                               ; preds = %34
  %40 = load ptr, ptr @stderr, align 8, !tbaa !8
  %41 = tail call ptr @__errno_location() #31
  %42 = load i32, ptr %41, align 4, !tbaa !4
  %43 = tail call ptr @strerror(i32 noundef %42) #24
  %44 = tail call i32 (ptr, ptr, ...) @fprintf(ptr noundef %40, ptr noundef nonnull @.str.53, ptr noundef %0, ptr noundef %43) #26
  %45 = load i32, ptr @g_displayLevel, align 4, !tbaa !4
  %46 = icmp sgt i32 %45, 3
  br i1 %46, label %47, label %50

47:                                               ; preds = %39
  %48 = load ptr, ptr @stderr, align 8, !tbaa !8
  %49 = tail call i32 @fflush(ptr noundef %48)
  br label %50

50:                                               ; preds = %34, %39, %47, %23, %31, %26, %16
  %.0 = phi ptr [ %17, %16 ], [ null, %26 ], [ null, %31 ], [ null, %23 ], [ null, %47 ], [ null, %39 ], [ %35, %34 ]
  ret ptr %.0
}